(lp0
I1
a.(lp0
I6
a.(lp0
I6
a.(lp0
I1
a.(lp0
I5
aI6
a.(lp0
I6
a.(lp0
I1
a.(lp0
I5
a.(lp0
I11
a.(lp0
I1
aI6
aI9
aI10
a.(lp0
I5
a.(lp0
I1
a.(lp0
I1
aI10
a.(lp0
I1
a.(lp0
I6
a.(lp0
I6
a.(lp0
I1
a.(lp0
I10
a.(lp0
I1
a.(lp0
I1
aI5
a.(lp0
I5
a.(lp0
I1
a.(lp0
I1
a.(lp0
I1
a.(lp0
I6
a.(lp0
I5
a.(lp0
I1
aI6
a.(lp0
I10
a.(lp0
I5
a.(lp0
I11
a.(lp0
I1
a.(lp0
I1
a.(lp0
I1
aI10
a.(lp0
I1
a.(lp0
I11
a.(lp0
I10
a.(lp0
I10
a.(lp0
I5
a.(lp0
I9
a.(lp0
I5
a.(lp0
I1
a.(lp0
I1
a.(lp0
I1
a.(lp0
I1
a.(lp0
I10
a.(lp0
I1
a.(lp0
I11
a.(lp0
I1
a.(lp0
I10
a.(lp0
I5
a.(lp0
I6
a.(lp0
I6
a.(lp0
I6
a.(lp0
I1
aI6
aI10
a.(lp0
I10
a.(lp0
I1
a.(lp0
I6
a.(lp0
I1
aI10
a.(lp0
I9
aI10
aI11
a.(lp0
I1
a.(lp0
I5
a.(lp0
I1
a.(lp0
I1
a.(lp0
I5
a.(lp0
I11
a.(lp0
I9
a.(lp0
I6
a.(lp0
I1
a.(lp0
I6
a.(lp0
I9
a.(lp0
I6
a.(lp0
I1
a.(lp0
I11
a.(lp0
I1
a.(lp0
I5
a.(lp0
I5
a.(lp0
I9
aI10
a.(lp0
I10
a.(lp0
I1
a.(lp0
I1
a.(lp0
I5
a.(lp0
I6
a.(lp0
I6
a.(lp0
I1
a.(lp0
I5
a.(lp0
I10
a.(lp0
I1
a.(lp0
I1
a.(lp0
I9
aI10
a.(lp0
I10
a.(lp0
I10
a.(lp0
I1
a.(lp0
I1
a.(lp0
I1
a.(lp0
I6
a.(lp0
I9
a.(lp0
I1
a.(lp0
I9
aI10
a.(lp0
I6
aI9
aI10
a.(lp0
I6
a.(lp0
I10
a.(lp0
I6
a.(lp0
I1
a.(lp0
I1
a.(lp0
I5
a.(lp0
I11
a.(lp0
I1
a.(lp0
I5
a.(lp0
I1
aI9
aI10
a.(lp0
I10
a.(lp0
I1
a.(lp0
I1
a.(lp0
I1
a.(lp0
I11
a.(lp0
I11
a.(lp0
I10
a.(lp0
I10
a.(lp0
I10
a.(lp0
I5
a.(lp0
I1
a.(lp0
I10
a.(lp0
I9
a.(lp0
I1
a.(lp0
I1
a.(lp0
I1
a.(lp0
I6
a.(lp0
I1
a.(lp0
I1
a.(lp0
I5
a.(lp0
I6
a.(lp0
I5
aI9
a.(lp0
I1
a.(lp0
I5
a.(lp0
I1
a.(lp0
I5
aI9
a.(lp0
I1
a.(lp0
I6
a.(lp0
I1
a.(lp0
I1
aI5
aI6
aI9
aI10
aI11
a.(lp0
I10
a.(lp0
I6
a.(lp0
I1
a.(lp0
I9
aI10
aI11
a.(lp0
I1
a.(lp0
I1
a.(lp0
I5
a.(lp0
I1
a.(lp0
I5
a.(lp0
I1
a.(lp0
I1
aI10
aI11
a.(lp0
I1
a.(lp0
I10
a.(lp0
I6
a.(lp0
I6
a.(lp0
I1
a.(lp0
I1
a.(lp0
I6
a.(lp0
I1
a.(lp0
I1
aI5
aI6
a.(lp0
I6
a.(lp0
I1
aI5
a.(lp0
I1
a.(lp0
I1
a.(lp0
I1
aI10
a.(lp0
I6
a.(lp0
I1
a.(lp0
I1
aI10
aI11
a.(lp0
I5
a.(lp0
I1
a.(lp0
I1
a.(lp0
I6
a.(lp0
I5
a.(lp0
I6
a.(lp0
I10
a.(lp0
I5
a.(lp0
I1
a.(lp0
I1
aI6
a.(lp0
I5
a.(lp0
I1
aI6
a.(lp0
I11
a.(lp0
I1
aI5
a.(lp0
I1
aI5
a.(lp0
I1
a.(lp0
I5
a.(lp0
I5
a.(lp0
I1
a.(lp0
I1
a.(lp0
I11
a.(lp0
I5
a.(lp0
I10
a.(lp0
I10
a.(lp0
I11
a.(lp0
I11
a.(lp0
I1
a.(lp0
I10
a.(lp0
I1
a.(lp0
I9
a.(lp0
I1
a.(lp0
I5
a.(lp0
I10
a.(lp0
I1
aI6
a.(lp0
I1
a.(lp0
I10
a.(lp0
I1
aI6
a.(lp0
I1
a.(lp0
I6
a.(lp0
I1
a.(lp0
I1
a.(lp0
I1
aI5
a.(lp0
I1
aI10
a.(lp0
I6
a.(lp0
I5
a.(lp0
I6
a.(lp0
I6
a.(lp0
I1
a.(lp0
I5
a.(lp0
I11
a.(lp0
I1
a.(lp0
I10
a.(lp0
I5
a.(lp0
I1
aI6
aI10
a.(lp0
I1
a.(lp0
I10
a.(lp0
I10
a.(lp0
I10
a.(lp0
I1
aI5
a.(lp0
I1
a.(lp0
I1
a.(lp0
I1
a.(lp0
I10
a.(lp0
I10
a.(lp0
I5
a.(lp0
I1
a.(lp0
I1
aI6
aI9
aI10
a.(lp0
I1
a.(lp0
I1
a.(lp0
I5
a.(lp0
I10
a.(lp0
I1
a.(lp0
I1
a.(lp0
I1
aI5
aI10
a.(lp0
I1
a.(lp0
I10
a.(lp0
I6
a.(lp0
I10
a.(lp0
I1
a.(lp0
I11
a.(lp0
I1
a.(lp0
I6
a.(lp0
I5
a.(lp0
I1
aI10
a.(lp0
I6
a.(lp0
I6
a.(lp0
I6
a.(lp0
I6
a.(lp0
I10
a.(lp0
I1
a.(lp0
I6
a.(lp0
I1
a.(lp0
I6
a.(lp0
I6
a.(lp0
I10
a.(lp0
I1
a.(lp0
I10
a.(lp0
I5
aI6
a.(lp0
I1
a.(lp0
I5
a.(lp0
I1
a.(lp0
I6
a.(lp0
I1
a.(lp0
I6
a.(lp0
I9
aI10
a.(lp0
I5
a.(lp0
I6
a.(lp0
I9
aI10
aI11
a.(lp0
I11
a.(lp0
I11
a.(lp0
I1
a.(lp0
I1
a.(lp0
I5
a.(lp0
I9
aI10
a.(lp0
I10
a.(lp0
I5
a.(lp0
I1
a.(lp0
I1
a.(lp0
I11
a.(lp0
I6
a.(lp0
I1
a.(lp0
I6
a.(lp0
I1
aI10
a.(lp0
I5
a.(lp0
I5
a.(lp0
I6
a.(lp0
I1
aI9
aI10
a.(lp0
I6
a.(lp0
I5
a.(lp0
I1
a.(lp0
I10
a.(lp0
I1
aI10
aI11
a.(lp0
I1
aI6
a.(lp0
I10
a.(lp0
I1
a.(lp0
I6
a.(lp0
I1
aI10
a.(lp0
I5
a.(lp0
I1
a.(lp0
I10
a.(lp0
I1
a.(lp0
I1
a.(lp0
I5
a.(lp0
I10
a.(lp0
I5
a.(lp0
I1
a.(lp0
I1
a.(lp0
I1
a.(lp0
I10
a.(lp0
I9
a.(lp0
I10
a.(lp0
I1
a.(lp0
I1
a.(lp0
I6
a.(lp0
I9
a.(lp0
I5
a.(lp0
I1
a.(lp0
I1
aI10
a.(lp0
I1
a.(lp0
I1
aI5
aI6
aI10
a.(lp0
I5
aI11
a.(lp0
I1
a.(lp0
I1
aI6
a.(lp0
I1
a.(lp0
I5
a.(lp0
I1
a.(lp0
I11
a.(lp0
I10
a.(lp0
I1
a.(lp0
I1
aI5
aI6
aI9
aI10
aI11
a.(lp0
I1
a.(lp0
I10
a.(lp0
I9
aI10
aI11
a.(lp0
I9
a.(lp0
I9
a.(lp0
I1
a.(lp0
I1
aI6
a.(lp0
I1
a.(lp0
I1
a.(lp0
I10
a.(lp0
I6
a.(lp0
I1
aI9
aI10
aI11
a.(lp0
I1
a.(lp0
I5
a.(lp0
I5
aI6
a.(lp0
I10
a.(lp0
I1
a.(lp0
I10
a.(lp0
I1
a.(lp0
I1
aI9
aI10
a.(lp0
I1
a.(lp0
I11
a.(lp0
I1
aI6
aI9
a.(lp0
I5
a.(lp0
I6
a.(lp0
I6
a.(lp0
I10
a.(lp0
I1
a.(lp0
I9
a.(lp0
I5
aI6
a.(lp0
I10
a.(lp0
I1
aI10
a.(lp0
I1
a.(lp0
I9
a.(lp0
I10
a.(lp0
I5
aI6
a.(lp0
I10
a.(lp0
I1
a.(lp0
I6
a.(lp0
I6
a.(lp0
I5
a.(lp0
I5
a.(lp0
I1
a.(lp0
I1
a.(lp0
I9
a.(lp0
I5
a.(lp0
I1
a.(lp0
I1
a.(lp0
I1
a.(lp0
I6
a.(lp0
I9
a.(lp0
I1
a.(lp0
I1
a.(lp0
I1
a.(lp0
I1
aI5
aI6
aI9
aI10
a.(lp0
I10
a.(lp0
I1
a.(lp0
I5
a.(lp0
I1
a.(lp0
I1
a.(lp0
I1
a.(lp0
I1
a.(lp0
I1
a.(lp0
I1
a.(lp0
I5
a.(lp0
I1
a.(lp0
I1
a.(lp0
I6
a.(lp0
I5
a.(lp0
I6
aI9
a.(lp0
I10
a.(lp0
I5
a.(lp0
I6
a.(lp0
I10
a.(lp0
I1
a.(lp0
I1
aI6
a.(lp0
I1
a.(lp0
I1
a.(lp0
I5
a.(lp0
I9
aI10
aI11
a.(lp0
I10
a.(lp0
I10
a.(lp0
I1
a.(lp0
I9
a.(lp0
I1
a.(lp0
I6
a.(lp0
I1
aI6
a.(lp0
I6
a.(lp0
I1
aI5
aI6
aI9
aI10
a.(lp0
I1
aI5
aI10
aI11
a.(lp0
I1
a.(lp0
I1
a.(lp0
I10
a.(lp0
I1
aI10
a.(lp0
I5
aI6
a.(lp0
I5
a.(lp0
I5
a.(lp0
I11
a.(lp0
I1
a.(lp0
I9
aI11
a.(lp0
I1
a.(lp0
I1
a.(lp0
I11
a.(lp0
I1
a.(lp0
I6
a.(lp0
I1
aI6
aI9
aI10
aI11
a.(lp0
I6
a.(lp0
I11
a.(lp0
I1
a.(lp0
I1
a.(lp0
I11
a.(lp0
I10
a.(lp0
I1
a.(lp0
I6
a.(lp0
I6
a.(lp0
I1
a.(lp0
I6
a.(lp0
I6
a.(lp0
I10
a.(lp0
I5
aI6
a.(lp0
I9
a.(lp0
I5
a.(lp0
I11
a.(lp0
I6
a.(lp0
I5
a.(lp0
I1
a.(lp0
I1
a.(lp0
I5
a.(lp0
I1
aI5
aI11
a.(lp0
I10
a.(lp0
I5
a.(lp0
I1
aI10
aI11
a.(lp0
I1
a.(lp0
I11
a.(lp0
I6
aI11
a.(lp0
I6
a.(lp0
I1
a.(lp0
I10
a.(lp0
I10
a.(lp0
I1
a.(lp0
I1
a.(lp0
I5
a.(lp0
I6
a.(lp0
I6
a.(lp0
I6
a.(lp0
I11
a.(lp0
I1
aI10
a.(lp0
I1
a.(lp0
I1
a.(lp0
I1
a.(lp0
I1
a.(lp0
I6
a.(lp0
I10
a.(lp0
I9
a.(lp0
I1
a.(lp0
I1
a.(lp0
I6
a.(lp0
I6
a.(lp0
I1
a.(lp0
I1
a.(lp0
I1
aI9
aI10
a.(lp0
I1
aI5
aI6
aI9
a.(lp0
I1
aI9
aI10
a.(lp0
I9
aI10
aI11
a.(lp0
I1
a.(lp0
I6
a.(lp0
I1
a.(lp0
I6
a.(lp0
I10
a.(lp0
I1
a.(lp0
I5
a.(lp0
I6
aI10
a.(lp0
I6
a.(lp0
I5
a.(lp0
I10
a.(lp0
I1
a.(lp0
I11
a.(lp0
I11
a.(lp0
I1
a.(lp0
I6
a.(lp0
I1
aI10
a.(lp0
I1
a.(lp0
I6
a.